(i__main__
ForecastLocation
p1
(dp2
S'current'
p3
(i__main__
ForecastDataset
p4
(dp5
S'weathermap'
p6
NsS'wind_dir_numeric'
p7
V340
p8
sS'high'
p9
V29
p10
sS'timezone'
p11
V13
p12
sS'sunrise'
p13
V6:25 AM
p14
sS'uv_index'
p15
VN/A
p16
sS'city'
p17
VNapier
p18
sS'last_update'
p19
V2/4/13 4:00 PM Local Time
p20
sS'condition_text'
p21
VN/A
p22
sS'low'
p23
V31
p24
sS'wind_gusts'
p25
VN/A
p26
sS'condition_code'
p27
V44
p28
sS'bar_read'
p29
VN/A
p30
sS'visibility'
p31
VN/A
p32
sS'uv_text'
p33
VN/A
p34
sS'wind_dir'
p35
VNNW
p36
sS'wind_speed'
p37
V23
p38
sS'moon_phase'
p39
VLast Quarter
p40
sS'observatory'
p41
VNapier Air Field
p42
sS'moon_icon'
p43
V22
p44
sS'dew_point'
p45
V16
p46
sS'country'
p47
VNew Zealand
p48
sS'day_of_week'
p49
VToday
p50
sS'humidity'
p51
V43
p52
sS'precip'
p53
VN/A
p54
sS'sunset'
p55
V8:26 PM
p56
sS'bar_desc'
p57
VN/A
p58
sbsS'timestamp'
p59
cdatetime
datetime
p60
(S'\x07\xdd\x02\x04\x12\x19\x1d\x07b\x1b'
tRp61
sS'day'
p62
(lp63
(i__main__
ForecastDataset
p64
(dp65
g6
Nsg7
VN/A
p66
sg9
VN/A
p67
sg11
g12
sg13
V6:27 AM
p68
sg15
g54
sg17
g18
sg19
V2/4/13 5:08 PM Local Time
p69
sg21
VN/A
p70
sg23
V18
p71
sg25
VN/A
p72
sg27
V44
p73
sg29
g54
sg31
g54
sg33
g54
sg35
VN/A
p74
sg37
VN/A
p75
sg39
g54
sg41
g54
sg43
g54
sg45
g54
sg47
g48
sg49
VMonday
p76
sg51
VN/A
p77
sg53
V70
p78
sg55
V8:26 PM
p79
sg57
g54
sba(i__main__
ForecastDataset
p80
(dp81
g6
Nsg7
V186
p82
sg9
V18
p83
sg11
g12
sg13
V6:28 AM
p84
sg15
g54
sg17
g18
sg19
g69
sg21
VRain / Wind
p85
sg23
V10
p86
sg25
VN/A
p87
sg27
V12
p88
sg29
g54
sg31
g54
sg33
g54
sg35
VS
sg37
V31
p89
sg39
g54
sg41
g54
sg43
g54
sg45
g54
sg47
g48
sg49
VTuesday
p90
sg51
V74
p91
sg53
V70
p92
sg55
V8:25 PM
p93
sg57
g54
sba(i__main__
ForecastDataset
p94
(dp95
g6
Nsg7
V180
p96
sg9
V21
p97
sg11
g12
sg13
V6:29 AM
p98
sg15
g54
sg17
g18
sg19
g69
sg21
VPartly Cloudy
p99
sg23
V10
p100
sg25
VN/A
p101
sg27
V30
p102
sg29
g54
sg31
g54
sg33
g54
sg35
VS
sg37
V26
p103
sg39
g54
sg41
g54
sg43
g54
sg45
g54
sg47
g48
sg49
VWednesday
p104
sg51
V57
p105
sg53
V10
p106
sg55
V8:24 PM
p107
sg57
g54
sba(i__main__
ForecastDataset
p108
(dp109
g6
Nsg7
V165
p110
sg9
V22
p111
sg11
g12
sg13
V6:30 AM
p112
sg15
g54
sg17
g18
sg19
g69
sg21
VPartly Cloudy
p113
sg23
V12
p114
sg25
VN/A
p115
sg27
V30
p116
sg29
g54
sg31
g54
sg33
g54
sg35
VSSE
p117
sg37
V19
p118
sg39
g54
sg41
g54
sg43
g54
sg45
g54
sg47
g48
sg49
VThursday
p119
sg51
V64
p120
sg53
V0
sg55
V8:23 PM
p121
sg57
g54
sba(i__main__
ForecastDataset
p122
(dp123
g6
Nsg7
V137
p124
sg9
V24
p125
sg11
g12
sg13
V6:31 AM
p126
sg15
g54
sg17
g18
sg19
g69
sg21
VSunny
p127
sg23
V11
p128
sg25
VN/A
p129
sg27
V32
p130
sg29
g54
sg31
g54
sg33
g54
sg35
VSE
p131
sg37
V14
p132
sg39
g54
sg41
g54
sg43
g54
sg45
g54
sg47
g48
sg49
VFriday
p133
sg51
V64
p134
sg53
V0
sg55
V8:22 PM
p135
sg57
g54
sba(i__main__
ForecastDataset
p136
(dp137
g6
Nsg7
V52
p138
sg9
V24
p139
sg11
g12
sg13
V6:33 AM
p140
sg15
g54
sg17
g18
sg19
g69
sg21
VSunny
p141
sg23
V12
p142
sg25
VN/A
p143
sg27
V32
p144
sg29
g54
sg31
g54
sg33
g54
sg35
VNE
p145
sg37
V16
p146
sg39
g54
sg41
g54
sg43
g54
sg45
g54
sg47
g48
sg49
VSaturday
p147
sg51
V65
p148
sg53
V0
sg55
V8:20 PM
p149
sg57
g54
sba(i__main__
ForecastDataset
p150
(dp151
g6
Nsg7
V27
p152
sg9
V26
p153
sg11
g12
sg13
V6:34 AM
p154
sg15
g54
sg17
g18
sg19
g69
sg21
VSunny
p155
sg23
V13
p156
sg25
VN/A
p157
sg27
V32
p158
sg29
g54
sg31
g54
sg33
g54
sg35
VNNE
p159
sg37
V14
p160
sg39
g54
sg41
g54
sg43
g54
sg45
g54
sg47
g48
sg49
VSunday
p161
sg51
V67
p162
sg53
V0
sg55
V8:19 PM
p163
sg57
g54
sba(i__main__
ForecastDataset
p164
(dp165
g6
Nsg7
V353
p166
sg9
V26
p167
sg11
g12
sg13
V6:35 AM
p168
sg15
g54
sg17
g18
sg19
g69
sg21
VMostly Sunny
p169
sg23
V15
p170
sg25
VN/A
p171
sg27
V34
p172
sg29
g54
sg31
g54
sg33
g54
sg35
VN
sg37
V16
p173
sg39
g54
sg41
g54
sg43
g54
sg45
g54
sg47
g48
sg49
VMonday
p174
sg51
V67
p175
sg53
V0
sg55
V8:18 PM
p176
sg57
g54
sba(i__main__
ForecastDataset
p177
(dp178
g6
Nsg7
V345
p179
sg9
V25
p180
sg11
g12
sg13
V6:36 AM
p181
sg15
g54
sg17
g18
sg19
g69
sg21
VCloudy
p182
sg23
V15
p183
sg25
VN/A
p184
sg27
V26
p185
sg29
g54
sg31
g54
sg33
g54
sg35
VNNW
p186
sg37
V16
p187
sg39
g54
sg41
g54
sg43
g54
sg45
g54
sg47
g48
sg49
VTuesday
p188
sg51
V68
p189
sg53
V10
p190
sg55
V8:17 PM
p191
sg57
g54
sba(i__main__
ForecastDataset
p192
(dp193
g6
Nsg7
V50
p194
sg9
V24
p195
sg11
g12
sg13
V6:37 AM
p196
sg15
g54
sg17
g18
sg19
g69
sg21
VMostly Cloudy
p197
sg23
V14
p198
sg25
VN/A
p199
sg27
V28
p200
sg29
g54
sg31
g54
sg33
g54
sg35
VNE
p201
sg37
V14
p202
sg39
g54
sg41
g54
sg43
g54
sg45
g54
sg47
g48
sg49
VWednesday
p203
sg51
V70
p204
sg53
V20
p205
sg55
V8:16 PM
p206
sg57
g54
sbasS'night'
p207
(lp208
(i__main__
ForecastDataset
p209
(dp210
g6
Nsg7
V314
p211
sg9
g67
sg11
g12
sg13
g68
sg15
g54
sg17
g18
sg19
g69
sg21
VRain
p212
sg23
g71
sg25
VN/A
p213
sg27
V12
p214
sg29
g54
sg31
g54
sg33
g54
sg35
VNW
p215
sg37
V27
p216
sg39
g54
sg41
g54
sg43
g54
sg45
g54
sg47
g48
sg49
g76
sg51
V82
p217
sg53
V70
p218
sg55
g79
sg57
g54
sba(i__main__
ForecastDataset
p219
(dp220
g6
Nsg7
V198
p221
sg9
g83
sg11
g12
sg13
g84
sg15
g54
sg17
g18
sg19
g69
sg21
VShowers / Wind Early
p222
sg23
g86
sg25
VN/A
p223
sg27
V45
p224
sg29
g54
sg31
g54
sg33
g54
sg35
VSSW
p225
sg37
V31
p226
sg39
g54
sg41
g54
sg43
g54
sg45
g54
sg47
g48
sg49
g90
sg51
V78
p227
sg53
V50
p228
sg55
g93
sg57
g54
sba(i__main__
ForecastDataset
p229
(dp230
g6
Nsg7
V201
p231
sg9
g97
sg11
g12
sg13
g98
sg15
g54
sg17
g18
sg19
g69
sg21
VPartly Cloudy
p232
sg23
g100
sg25
VN/A
p233
sg27
V29
p234
sg29
g54
sg31
g54
sg33
g54
sg35
VSSW
p235
sg37
V14
p236
sg39
g54
sg41
g54
sg43
g54
sg45
g54
sg47
g48
sg49
g104
sg51
V74
p237
sg53
V0
sg55
g107
sg57
g54
sba(i__main__
ForecastDataset
p238
(dp239
g6
Nsg7
V195
p240
sg9
g111
sg11
g12
sg13
g112
sg15
g54
sg17
g18
sg19
g69
sg21
VPartly Cloudy
p241
sg23
g114
sg25
VN/A
p242
sg27
V29
p243
sg29
g54
sg31
g54
sg33
g54
sg35
VSSW
p244
sg37
V10
p245
sg39
g54
sg41
g54
sg43
g54
sg45
g54
sg47
g48
sg49
g119
sg51
V77
p246
sg53
V0
sg55
g121
sg57
g54
sba(i__main__
ForecastDataset
p247
(dp248
g6
Nsg7
V263
p249
sg9
g125
sg11
g12
sg13
g126
sg15
g54
sg17
g18
sg19
g69
sg21
VClear
p250
sg23
g128
sg25
VN/A
p251
sg27
V31
p252
sg29
g54
sg31
g54
sg33
g54
sg35
VW
sg37
V8
sg39
g54
sg41
g54
sg43
g54
sg45
g54
sg47
g48
sg49
g133
sg51
V77
p253
sg53
V0
sg55
g135
sg57
g54
sba(i__main__
ForecastDataset
p254
(dp255
g6
Nsg7
V295
p256
sg9
g139
sg11
g12
sg13
g140
sg15
g54
sg17
g18
sg19
g69
sg21
VClear
p257
sg23
g142
sg25
VN/A
p258
sg27
V31
p259
sg29
g54
sg31
g54
sg33
g54
sg35
VWNW
p260
sg37
V8
sg39
g54
sg41
g54
sg43
g54
sg45
g54
sg47
g48
sg49
g147
sg51
V78
p261
sg53
V0
sg55
g149
sg57
g54
sba(i__main__
ForecastDataset
p262
(dp263
g6
Nsg7
V305
p264
sg9
g153
sg11
g12
sg13
g154
sg15
g54
sg17
g18
sg19
g69
sg21
VClear
p265
sg23
g156
sg25
VN/A
p266
sg27
V31
p267
sg29
g54
sg31
g54
sg33
g54
sg35
VNW
p268
sg37
V10
p269
sg39
g54
sg41
g54
sg43
g54
sg45
g54
sg47
g48
sg49
g161
sg51
V78
p270
sg53
V0
sg55
g163
sg57
g54
sba(i__main__
ForecastDataset
p271
(dp272
g6
Nsg7
V307
p273
sg9
g167
sg11
g12
sg13
g168
sg15
g54
sg17
g18
sg19
g69
sg21
VMostly Clear
p274
sg23
g170
sg25
VN/A
p275
sg27
V33
p276
sg29
g54
sg31
g54
sg33
g54
sg35
VNW
p277
sg37
V11
p278
sg39
g54
sg41
g54
sg43
g54
sg45
g54
sg47
g48
sg49
g174
sg51
V78
p279
sg53
V10
p280
sg55
g176
sg57
g54
sba(i__main__
ForecastDataset
p281
(dp282
g6
Nsg7
V296
p283
sg9
g180
sg11
g12
sg13
g181
sg15
g54
sg17
g18
sg19
g69
sg21
VPartly Cloudy
p284
sg23
g183
sg25
VN/A
p285
sg27
V29
p286
sg29
g54
sg31
g54
sg33
g54
sg35
VWNW
p287
sg37
V10
p288
sg39
g54
sg41
g54
sg43
g54
sg45
g54
sg47
g48
sg49
g188
sg51
V81
p289
sg53
V20
p290
sg55
g191
sg57
g54
sba(i__main__
ForecastDataset
p291
(dp292
g6
Nsg7
V288
p293
sg9
g195
sg11
g12
sg13
g196
sg15
g54
sg17
g18
sg19
g69
sg21
VMostly Clear
p294
sg23
g198
sg25
VN/A
p295
sg27
V33
p296
sg29
g54
sg31
g54
sg33
g54
sg35
VWNW
p297
sg37
V8
sg39
g54
sg41
g54
sg43
g54
sg45
g54
sg47
g48
sg49
g203
sg51
V84
p298
sg53
V10
p299
sg55
g206
sg57
g54
sbasb.