(i__main__
ForecastLocation
p1
(dp2
S'current'
p3
(i__main__
ForecastDataset
p4
(dp5
S'weathermap'
p6
NsS'wind_dir_numeric'
p7
V10
p8
sS'high'
p9
V17
p10
sS'timezone'
p11
V13
p12
sS'sunrise'
p13
V7:30 AM
p14
sS'uv_index'
p15
V0
sS'city'
p16
VWellington
p17
sS'last_update'
p18
V3/26/13 8:00 AM Local Time
p19
sS'condition_text'
p20
VPartly Cloudy
p21
sS'low'
p22
V17
p23
sS'wind_gusts'
p24
VN/A
p25
sS'condition_code'
p26
V30
p27
sS'bar_read'
p28
V1023.0
p29
sS'visibility'
p30
V10.0
p31
sS'uv_text'
p32
VLow
p33
sS'wind_dir'
p34
VN
sS'wind_speed'
p35
V8
sS'moon_phase'
p36
VWaxing Gibbous
p37
sS'observatory'
p38
VWellington
p39
sS'moon_icon'
p40
V13
p41
sS'dew_point'
p42
V15
p43
sS'country'
p44
VNew Zealand
p45
sS'day_of_week'
p46
VToday
p47
sS'humidity'
p48
V88
p49
sS'precip'
p50
VN/A
p51
sS'sunset'
p52
V7:25 PM
p53
sS'bar_desc'
p54
Vsteady
p55
sbsS'timestamp'
p56
cdatetime
datetime
p57
(S'\x07\xdd\x03\x1a\x08,\x0f\x05\xea\xa9'
tRp58
sS'day'
p59
(lp60
(i__main__
ForecastDataset
p61
(dp62
g6
Nsg7
V204
p63
sg9
V19
p64
sg11
g12
sg13
V7:31 AM
p65
sg15
g51
sg16
g17
sg18
V3/26/13 4:08 AM Local Time
p66
sg20
VPartly Cloudy
p67
sg22
V15
p68
sg24
VN/A
p69
sg26
V30
p70
sg28
g51
sg30
g51
sg32
g51
sg34
VSSW
p71
sg35
V23
p72
sg36
g51
sg38
g51
sg40
g51
sg42
g51
sg44
g45
sg46
VTuesday
p73
sg48
V78
p74
sg50
V10
p75
sg52
V7:23 PM
p76
sg54
g51
sba(i__main__
ForecastDataset
p77
(dp78
g6
Nsg7
V2
sg9
V21
p79
sg11
g12
sg13
V7:32 AM
p80
sg15
g51
sg16
g17
sg18
g66
sg20
VPartly Cloudy
p81
sg22
V16
p82
sg24
VN/A
p83
sg26
V30
p84
sg28
g51
sg30
g51
sg32
g51
sg34
VN
sg35
V23
p85
sg36
g51
sg38
g51
sg40
g51
sg42
g51
sg44
g45
sg46
VWednesday
p86
sg48
V79
p87
sg50
V20
p88
sg52
V7:22 PM
p89
sg54
g51
sba(i__main__
ForecastDataset
p90
(dp91
g6
Nsg7
V3
sg9
V19
p92
sg11
g12
sg13
V7:33 AM
p93
sg15
g51
sg16
g17
sg18
g66
sg20
VPartly Cloudy
p94
sg22
V16
p95
sg24
VN/A
p96
sg26
V30
p97
sg28
g51
sg30
g51
sg32
g51
sg34
VN
sg35
V31
p98
sg36
g51
sg38
g51
sg40
g51
sg42
g51
sg44
g45
sg46
VThursday
p99
sg48
V79
p100
sg50
V0
sg52
V7:20 PM
p101
sg54
g51
sba(i__main__
ForecastDataset
p102
(dp103
g6
Nsg7
V352
p104
sg9
V19
p105
sg11
g12
sg13
V7:34 AM
p106
sg15
g51
sg16
g17
sg18
g66
sg20
VPartly Cloudy / Wind
p107
sg22
V17
p108
sg24
VN/A
p109
sg26
V24
p110
sg28
g51
sg30
g51
sg32
g51
sg34
VN
sg35
V47
p111
sg36
g51
sg38
g51
sg40
g51
sg42
g51
sg44
g45
sg46
VFriday
p112
sg48
V80
p113
sg50
V10
p114
sg52
V7:18 PM
p115
sg54
g51
sba(i__main__
ForecastDataset
p116
(dp117
g6
Nsg7
V341
p118
sg9
V19
p119
sg11
g12
sg13
V7:35 AM
p120
sg15
g51
sg16
g17
sg18
g66
sg20
VPartly Cloudy / Wind
p121
sg22
V17
p122
sg24
VN/A
p123
sg26
V24
p124
sg28
g51
sg30
g51
sg32
g51
sg34
VNNW
p125
sg35
V32
p126
sg36
g51
sg38
g51
sg40
g51
sg42
g51
sg44
g45
sg46
VSaturday
p127
sg48
V81
p128
sg50
V10
p129
sg52
V7:16 PM
p130
sg54
g51
sba(i__main__
ForecastDataset
p131
(dp132
g6
Nsg7
V343
p133
sg9
V19
p134
sg11
g12
sg13
V7:36 AM
p135
sg15
g51
sg16
g17
sg18
g66
sg20
VPartly Cloudy / Wind
p136
sg22
V15
p137
sg24
VN/A
p138
sg26
V24
p139
sg28
g51
sg30
g51
sg32
g51
sg34
VNNW
p140
sg35
V34
p141
sg36
g51
sg38
g51
sg40
g51
sg42
g51
sg44
g45
sg46
VSunday
p142
sg48
V79
p143
sg50
V20
p144
sg52
V7:15 PM
p145
sg54
g51
sba(i__main__
ForecastDataset
p146
(dp147
g6
Nsg7
V352
p148
sg9
V18
p149
sg11
g12
sg13
V7:37 AM
p150
sg15
g51
sg16
g17
sg18
g66
sg20
VShowers
p151
sg22
V15
p152
sg24
VN/A
p153
sg26
V11
p154
sg28
g51
sg30
g51
sg32
g51
sg34
VN
sg35
V29
p155
sg36
g51
sg38
g51
sg40
g51
sg42
g51
sg44
g45
sg46
VMonday
p156
sg48
V78
p157
sg50
V30
p158
sg52
V7:13 PM
p159
sg54
g51
sba(i__main__
ForecastDataset
p160
(dp161
g6
Nsg7
V339
p162
sg9
V18
p163
sg11
g12
sg13
V7:39 AM
p164
sg15
g51
sg16
g17
sg18
g66
sg20
VMostly Cloudy / Wind
p165
sg22
V14
p166
sg24
VN/A
p167
sg26
V24
p168
sg28
g51
sg30
g51
sg32
g51
sg34
VNNW
p169
sg35
V35
p170
sg36
g51
sg38
g51
sg40
g51
sg42
g51
sg44
g45
sg46
VTuesday
p171
sg48
V73
p172
sg50
V10
p173
sg52
V7:11 PM
p174
sg54
g51
sba(i__main__
ForecastDataset
p175
(dp176
g6
Nsg7
V13
p177
sg9
V17
p178
sg11
g12
sg13
V7:40 AM
p179
sg15
g51
sg16
g17
sg18
g66
sg20
VCloudy
p180
sg22
V14
p181
sg24
VN/A
p182
sg26
V26
p183
sg28
g51
sg30
g51
sg32
g51
sg34
VNNE
p184
sg35
V29
p185
sg36
g51
sg38
g51
sg40
g51
sg42
g51
sg44
g45
sg46
VWednesday
p186
sg48
V74
p187
sg50
V20
p188
sg52
V7:10 PM
p189
sg54
g51
sba(i__main__
ForecastDataset
p190
(dp191
g6
Nsg7
V352
p192
sg9
V18
p193
sg11
g12
sg13
V7:41 AM
p194
sg15
g51
sg16
g17
sg18
g66
sg20
VAM Clouds / PM Sun
p195
sg22
V14
p196
sg24
VN/A
p197
sg26
V30
p198
sg28
g51
sg30
g51
sg32
g51
sg34
VN
sg35
V27
p199
sg36
g51
sg38
g51
sg40
g51
sg42
g51
sg44
g45
sg46
VThursday
p200
sg48
V71
p201
sg50
V20
p202
sg52
V7:08 PM
p203
sg54
g51
sbasS'night'
p204
(lp205
(i__main__
ForecastDataset
p206
(dp207
g6
Nsg7
V81
p208
sg9
g64
sg11
g12
sg13
g65
sg15
g51
sg16
g17
sg18
g66
sg20
VMostly Clear
p209
sg22
g68
sg24
VN/A
p210
sg26
V33
p211
sg28
g51
sg30
g51
sg32
g51
sg34
VE
sg35
V16
p212
sg36
g51
sg38
g51
sg40
g51
sg42
g51
sg44
g45
sg46
g73
sg48
V85
p213
sg50
V10
p214
sg52
g76
sg54
g51
sba(i__main__
ForecastDataset
p215
(dp216
g6
Nsg7
V5
sg9
g79
sg11
g12
sg13
g80
sg15
g51
sg16
g17
sg18
g66
sg20
VPartly Cloudy
p217
sg22
g82
sg24
VN/A
p218
sg26
V29
p219
sg28
g51
sg30
g51
sg32
g51
sg34
VN
sg35
V23
p220
sg36
g51
sg38
g51
sg40
g51
sg42
g51
sg44
g45
sg46
g86
sg48
V87
p221
sg50
V20
p222
sg52
g89
sg54
g51
sba(i__main__
ForecastDataset
p223
(dp224
g6
Nsg7
V2
sg9
g92
sg11
g12
sg13
g93
sg15
g51
sg16
g17
sg18
g66
sg20
VMostly Clear
p225
sg22
g95
sg24
VN/A
p226
sg26
V33
p227
sg28
g51
sg30
g51
sg32
g51
sg34
VN
sg35
V29
p228
sg36
g51
sg38
g51
sg40
g51
sg42
g51
sg44
g45
sg46
g99
sg48
V84
p229
sg50
V0
sg52
g101
sg54
g51
sba(i__main__
ForecastDataset
p230
(dp231
g6
Nsg7
V344
p232
sg9
g105
sg11
g12
sg13
g106
sg15
g51
sg16
g17
sg18
g66
sg20
VPartly Cloudy / Wind
p233
sg22
g108
sg24
VN/A
p234
sg26
V24
p235
sg28
g51
sg30
g51
sg32
g51
sg34
VNNW
p236
sg35
V32
p237
sg36
g51
sg38
g51
sg40
g51
sg42
g51
sg44
g45
sg46
g112
sg48
V83
p238
sg50
V10
p239
sg52
g115
sg54
g51
sba(i__main__
ForecastDataset
p240
(dp241
g6
Nsg7
V346
p242
sg9
g119
sg11
g12
sg13
g120
sg15
g51
sg16
g17
sg18
g66
sg20
VMostly Clear
p243
sg22
g122
sg24
VN/A
p244
sg26
V33
p245
sg28
g51
sg30
g51
sg32
g51
sg34
VNNW
p246
sg35
V31
p247
sg36
g51
sg38
g51
sg40
g51
sg42
g51
sg44
g45
sg46
g127
sg48
V85
p248
sg50
V20
p249
sg52
g130
sg54
g51
sba(i__main__
ForecastDataset
p250
(dp251
g6
Nsg7
V348
p252
sg9
g134
sg11
g12
sg13
g135
sg15
g51
sg16
g17
sg18
g66
sg20
VPartly Cloudy
p253
sg22
g137
sg24
VN/A
p254
sg26
V29
p255
sg28
g51
sg30
g51
sg32
g51
sg34
VNNW
p256
sg35
V26
p257
sg36
g51
sg38
g51
sg40
g51
sg42
g51
sg44
g45
sg46
g142
sg48
V82
p258
sg50
V10
p259
sg52
g145
sg54
g51
sba(i__main__
ForecastDataset
p260
(dp261
g6
Nsg7
V359
p262
sg9
g149
sg11
g12
sg13
g150
sg15
g51
sg16
g17
sg18
g66
sg20
VScattered Showers
p263
sg22
g152
sg24
VN/A
p264
sg26
V45
p265
sg28
g51
sg30
g51
sg32
g51
sg34
VN
sg35
V23
p266
sg36
g51
sg38
g51
sg40
g51
sg42
g51
sg44
g45
sg46
g156
sg48
V80
p267
sg50
V30
p268
sg52
g159
sg54
g51
sba(i__main__
ForecastDataset
p269
(dp270
g6
Nsg7
V316
p271
sg9
g163
sg11
g12
sg13
g164
sg15
g51
sg16
g17
sg18
g66
sg20
VClouds Early / Clearing Late
p272
sg22
g166
sg24
VN/A
p273
sg26
V29
p274
sg28
g51
sg30
g51
sg32
g51
sg34
VNW
p275
sg35
V24
p276
sg36
g51
sg38
g51
sg40
g51
sg42
g51
sg44
g45
sg46
g171
sg48
V77
p277
sg50
V0
sg52
g174
sg54
g51
sba(i__main__
ForecastDataset
p278
(dp279
g6
Nsg7
V5
sg9
g178
sg11
g12
sg13
g179
sg15
g51
sg16
g17
sg18
g66
sg20
VCloudy
p280
sg22
g181
sg24
VN/A
p281
sg26
V26
p282
sg28
g51
sg30
g51
sg32
g51
sg34
VN
sg35
V18
p283
sg36
g51
sg38
g51
sg40
g51
sg42
g51
sg44
g45
sg46
g186
sg48
V77
p284
sg50
V20
p285
sg52
g189
sg54
g51
sba(i__main__
ForecastDataset
p286
(dp287
g6
Nsg7
V7
sg9
g193
sg11
g12
sg13
g194
sg15
g51
sg16
g17
sg18
g66
sg20
VPartly Cloudy
p288
sg22
g196
sg24
VN/A
p289
sg26
V29
p290
sg28
g51
sg30
g51
sg32
g51
sg34
VN
sg35
V21
p291
sg36
g51
sg38
g51
sg40
g51
sg42
g51
sg44
g45
sg46
g200
sg48
V74
p292
sg50
V0
sg52
g203
sg54
g51
sbasb.