(i__main__
ForecastLocation
p1
(dp2
S'current'
p3
(i__main__
ForecastDataset
p4
(dp5
S'weathermap'
p6
NsS'wind_dir_numeric'
p7
V360
p8
sS'high'
p9
V28
p10
sS'timezone'
p11
V-6
p12
sS'sunrise'
p13
V6:24 AM
p14
sS'uv_index'
p15
V2
sS'city'
p16
VSan Salvador
p17
sS'last_update'
p18
V1/25/13 3:50 PM Local Time
p19
sS'condition_text'
p20
VPartly Cloudy
p21
sS'low'
p22
V29
p23
sS'wind_gusts'
p24
VN/A
p25
sS'condition_code'
p26
V30
p27
sS'bar_read'
p28
V1014.9
p29
sS'visibility'
p30
V10.0
p31
sS'uv_text'
p32
VLow
p33
sS'wind_dir'
p34
VN
sS'wind_speed'
p35
V11
p36
sS'moon_phase'
p37
VWaxing Gibbous
p38
sS'observatory'
p39
VSan Salvador
p40
sS'moon_icon'
p41
V13
p42
sS'dew_point'
p43
V19
p44
sS'country'
p45
VEl Salvador
p46
sS'day_of_week'
p47
VToday
p48
sS'humidity'
p49
V58
p50
sS'precip'
p51
VN/A
p52
sS'sunset'
p53
V5:54 PM
p54
sS'bar_desc'
p55
Vfalling
p56
sbsS'timestamp'
p57
cdatetime
datetime
p58
(S'\x07\xdd\x01\x1a\x0b(\n\t\xff\xdc'
tRp59
sS'day'
p60
(lp61
(i__main__
ForecastDataset
p62
(dp63
g6
Nsg7
VN/A
p64
sg9
VN/A
p65
sg11
g12
sg13
V6:24 AM
p66
sg15
g52
sg16
g17
sg18
V1/25/13 2:22 PM Local Time
p67
sg20
VN/A
p68
sg22
V17
p69
sg24
VN/A
p70
sg26
V44
p71
sg28
g52
sg30
g52
sg32
g52
sg34
VN/A
p72
sg35
VN/A
p73
sg37
g52
sg39
g52
sg41
g52
sg43
g52
sg45
g46
sg47
VFriday
p74
sg49
VN/A
p75
sg51
V10
p76
sg53
V5:54 PM
p77
sg55
g52
sba(i__main__
ForecastDataset
p78
(dp79
g6
Nsg7
V359
p80
sg9
V32
p81
sg11
g12
sg13
V6:24 AM
p82
sg15
g52
sg16
g17
sg18
g67
sg20
VPartly Cloudy
p83
sg22
V18
p84
sg24
VN/A
p85
sg26
V30
p86
sg28
g52
sg30
g52
sg32
g52
sg34
VN
sg35
V14
p87
sg37
g52
sg39
g52
sg41
g52
sg43
g52
sg45
g46
sg47
VSaturday
p88
sg49
V64
p89
sg51
V10
p90
sg53
V5:54 PM
p91
sg55
g52
sba(i__main__
ForecastDataset
p92
(dp93
g6
Nsg7
V6
sg9
V32
p94
sg11
g12
sg13
V6:24 AM
p95
sg15
g52
sg16
g17
sg18
g67
sg20
VPartly Cloudy
p96
sg22
V19
p97
sg24
VN/A
p98
sg26
V30
p99
sg28
g52
sg30
g52
sg32
g52
sg34
VN
sg35
V10
p100
sg37
g52
sg39
g52
sg41
g52
sg43
g52
sg45
g46
sg47
VSunday
p101
sg49
V63
p102
sg51
V0
sg53
V5:55 PM
p103
sg55
g52
sba(i__main__
ForecastDataset
p104
(dp105
g6
Nsg7
V327
p106
sg9
V33
p107
sg11
g12
sg13
V6:24 AM
p108
sg15
g52
sg16
g17
sg18
g67
sg20
VPartly Cloudy
p109
sg22
V18
p110
sg24
VN/A
p111
sg26
V30
p112
sg28
g52
sg30
g52
sg32
g52
sg34
VNNW
p113
sg35
V10
p114
sg37
g52
sg39
g52
sg41
g52
sg43
g52
sg45
g46
sg47
VMonday
p115
sg49
V75
p116
sg51
V0
sg53
V5:55 PM
p117
sg55
g52
sba(i__main__
ForecastDataset
p118
(dp119
g6
Nsg7
V318
p120
sg9
V33
p121
sg11
g12
sg13
V6:24 AM
p122
sg15
g52
sg16
g17
sg18
g67
sg20
VPartly Cloudy
p123
sg22
V18
p124
sg24
VN/A
p125
sg26
V30
p126
sg28
g52
sg30
g52
sg32
g52
sg34
VNW
p127
sg35
V10
p128
sg37
g52
sg39
g52
sg41
g52
sg43
g52
sg45
g46
sg47
VTuesday
p129
sg49
V75
p130
sg51
V0
sg53
V5:56 PM
p131
sg55
g52
sba(i__main__
ForecastDataset
p132
(dp133
g6
Nsg7
V303
p134
sg9
V32
p135
sg11
g12
sg13
V6:24 AM
p136
sg15
g52
sg16
g17
sg18
g67
sg20
VPartly Cloudy
p137
sg22
V18
p138
sg24
VN/A
p139
sg26
V30
p140
sg28
g52
sg30
g52
sg32
g52
sg34
VWNW
p141
sg35
V11
p142
sg37
g52
sg39
g52
sg41
g52
sg43
g52
sg45
g46
sg47
VWednesday
p143
sg49
V75
p144
sg51
V0
sg53
V5:56 PM
p145
sg55
g52
sba(i__main__
ForecastDataset
p146
(dp147
g6
Nsg7
V323
p148
sg9
V32
p149
sg11
g12
sg13
V6:24 AM
p150
sg15
g52
sg16
g17
sg18
g67
sg20
VSunny
p151
sg22
V19
p152
sg24
VN/A
p153
sg26
V32
p154
sg28
g52
sg30
g52
sg32
g52
sg34
VNW
p155
sg35
V10
p156
sg37
g52
sg39
g52
sg41
g52
sg43
g52
sg45
g46
sg47
VThursday
p157
sg49
V76
p158
sg51
V0
sg53
V5:57 PM
p159
sg55
g52
sba(i__main__
ForecastDataset
p160
(dp161
g6
Nsg7
V346
p162
sg9
V32
p163
sg11
g12
sg13
V6:24 AM
p164
sg15
g52
sg16
g17
sg18
g67
sg20
VMostly Sunny
p165
sg22
V19
p166
sg24
VN/A
p167
sg26
V34
p168
sg28
g52
sg30
g52
sg32
g52
sg34
VNNW
p169
sg35
V10
p170
sg37
g52
sg39
g52
sg41
g52
sg43
g52
sg45
g46
sg47
VFriday
p171
sg49
V74
p172
sg51
V0
sg53
V5:57 PM
p173
sg55
g52
sba(i__main__
ForecastDataset
p174
(dp175
g6
Nsg7
V353
p176
sg9
V32
p177
sg11
g12
sg13
V6:23 AM
p178
sg15
g52
sg16
g17
sg18
g67
sg20
VMostly Sunny
p179
sg22
V19
p180
sg24
VN/A
p181
sg26
V34
p182
sg28
g52
sg30
g52
sg32
g52
sg34
VN
sg35
V10
p183
sg37
g52
sg39
g52
sg41
g52
sg43
g52
sg45
g46
sg47
VSaturday
p184
sg49
V71
p185
sg51
V0
sg53
V5:57 PM
p186
sg55
g52
sba(i__main__
ForecastDataset
p187
(dp188
g6
Nsg7
V332
p189
sg9
V33
p190
sg11
g12
sg13
V6:23 AM
p191
sg15
g52
sg16
g17
sg18
g67
sg20
VSunny
p192
sg22
V18
p193
sg24
VN/A
p194
sg26
V32
p195
sg28
g52
sg30
g52
sg32
g52
sg34
VNNW
p196
sg35
V10
p197
sg37
g52
sg39
g52
sg41
g52
sg43
g52
sg45
g46
sg47
VSunday
p198
sg49
V71
p199
sg51
V0
sg53
V5:58 PM
p200
sg55
g52
sbasS'night'
p201
(lp202
(i__main__
ForecastDataset
p203
(dp204
g6
Nsg7
V346
p205
sg9
g65
sg11
g12
sg13
g66
sg15
g52
sg16
g17
sg18
g67
sg20
VPartly Cloudy
p206
sg22
g69
sg24
VN/A
p207
sg26
V29
p208
sg28
g52
sg30
g52
sg32
g52
sg34
VNNW
p209
sg35
V14
p210
sg37
g52
sg39
g52
sg41
g52
sg43
g52
sg45
g46
sg47
g74
sg49
V80
p211
sg51
V10
p212
sg53
g77
sg55
g52
sba(i__main__
ForecastDataset
p213
(dp214
g6
Nsg7
V344
p215
sg9
g81
sg11
g12
sg13
g82
sg15
g52
sg16
g17
sg18
g67
sg20
VPartly Cloudy
p216
sg22
g84
sg24
VN/A
p217
sg26
V29
p218
sg28
g52
sg30
g52
sg32
g52
sg34
VNNW
p219
sg35
V11
p220
sg37
g52
sg39
g52
sg41
g52
sg43
g52
sg45
g46
sg47
g88
sg49
V82
p221
sg51
V10
p222
sg53
g91
sg55
g52
sba(i__main__
ForecastDataset
p223
(dp224
g6
Nsg7
V350
p225
sg9
g94
sg11
g12
sg13
g95
sg15
g52
sg16
g17
sg18
g67
sg20
VPartly Cloudy
p226
sg22
g97
sg24
VN/A
p227
sg26
V29
p228
sg28
g52
sg30
g52
sg32
g52
sg34
VN
sg35
V5
sg37
g52
sg39
g52
sg41
g52
sg43
g52
sg45
g46
sg47
g101
sg49
V81
p229
sg51
V0
sg53
g103
sg55
g52
sba(i__main__
ForecastDataset
p230
(dp231
g6
Nsg7
V322
p232
sg9
g107
sg11
g12
sg13
g108
sg15
g52
sg16
g17
sg18
g67
sg20
VPartly Cloudy
p233
sg22
g110
sg24
VN/A
p234
sg26
V29
p235
sg28
g52
sg30
g52
sg32
g52
sg34
VNW
p236
sg35
V6
sg37
g52
sg39
g52
sg41
g52
sg43
g52
sg45
g46
sg47
g115
sg49
V84
p237
sg51
V0
sg53
g117
sg55
g52
sba(i__main__
ForecastDataset
p238
(dp239
g6
Nsg7
V309
p240
sg9
g121
sg11
g12
sg13
g122
sg15
g52
sg16
g17
sg18
g67
sg20
VPartly Cloudy
p241
sg22
g124
sg24
VN/A
p242
sg26
V29
p243
sg28
g52
sg30
g52
sg32
g52
sg34
VNW
p244
sg35
V5
sg37
g52
sg39
g52
sg41
g52
sg43
g52
sg45
g46
sg47
g129
sg49
V85
p245
sg51
V0
sg53
g131
sg55
g52
sba(i__main__
ForecastDataset
p246
(dp247
g6
Nsg7
V311
p248
sg9
g135
sg11
g12
sg13
g136
sg15
g52
sg16
g17
sg18
g67
sg20
VPartly Cloudy
p249
sg22
g138
sg24
VN/A
p250
sg26
V29
p251
sg28
g52
sg30
g52
sg32
g52
sg34
VNW
p252
sg35
V5
sg37
g52
sg39
g52
sg41
g52
sg43
g52
sg45
g46
sg47
g143
sg49
V84
p253
sg51
V0
sg53
g145
sg55
g52
sba(i__main__
ForecastDataset
p254
(dp255
g6
Nsg7
V333
p256
sg9
g149
sg11
g12
sg13
g150
sg15
g52
sg16
g17
sg18
g67
sg20
VPartly Cloudy
p257
sg22
g152
sg24
VN/A
p258
sg26
V29
p259
sg28
g52
sg30
g52
sg32
g52
sg34
VNNW
p260
sg35
V6
sg37
g52
sg39
g52
sg41
g52
sg43
g52
sg45
g46
sg47
g157
sg49
V83
p261
sg51
V0
sg53
g159
sg55
g52
sba(i__main__
ForecastDataset
p262
(dp263
g6
Nsg7
V350
p264
sg9
g163
sg11
g12
sg13
g164
sg15
g52
sg16
g17
sg18
g67
sg20
VClear
p265
sg22
g166
sg24
VN/A
p266
sg26
V31
p267
sg28
g52
sg30
g52
sg32
g52
sg34
VN
sg35
V6
sg37
g52
sg39
g52
sg41
g52
sg43
g52
sg45
g46
sg47
g171
sg49
V81
p268
sg51
V0
sg53
g173
sg55
g52
sba(i__main__
ForecastDataset
p269
(dp270
g6
Nsg7
V352
p271
sg9
g177
sg11
g12
sg13
g178
sg15
g52
sg16
g17
sg18
g67
sg20
VClear
p272
sg22
g180
sg24
VN/A
p273
sg26
V31
p274
sg28
g52
sg30
g52
sg32
g52
sg34
VN
sg35
V8
sg37
g52
sg39
g52
sg41
g52
sg43
g52
sg45
g46
sg47
g184
sg49
V80
p275
sg51
V0
sg53
g186
sg55
g52
sba(i__main__
ForecastDataset
p276
(dp277
g6
Nsg7
V330
p278
sg9
g190
sg11
g12
sg13
g191
sg15
g52
sg16
g17
sg18
g67
sg20
VClear
p279
sg22
g193
sg24
VN/A
p280
sg26
V31
p281
sg28
g52
sg30
g52
sg32
g52
sg34
VNNW
p282
sg35
V8
sg37
g52
sg39
g52
sg41
g52
sg43
g52
sg45
g46
sg47
g198
sg49
V81
p283
sg51
V0
sg53
g200
sg55
g52
sbasb.