(i__main__
ForecastLocation
p1
(dp2
S'current'
p3
(i__main__
ForecastDataset
p4
(dp5
S'weathermap'
p6
NsS'wind_dir_numeric'
p7
V270
p8
sS'high'
p9
V13
p10
sS'timezone'
p11
V13
p12
sS'sunrise'
p13
V6:16 AM
p14
sS'uv_index'
p15
VN/A
p16
sS'city'
p17
VHastings
p18
sS'last_update'
p19
V1/27/13 7:00 AM Local Time
p20
sS'condition_text'
p21
VN/A
p22
sS'low'
p23
V13
p24
sS'wind_gusts'
p25
VN/A
p26
sS'condition_code'
p27
V44
p28
sS'bar_read'
p29
VN/A
p30
sS'visibility'
p31
VN/A
p32
sS'uv_text'
p33
VN/A
p34
sS'wind_dir'
p35
VW
sS'wind_speed'
p36
V5
sS'moon_phase'
p37
VFull
p38
sS'observatory'
p39
VNapier Air Field
p40
sS'moon_icon'
p41
V14
p42
sS'dew_point'
p43
V11
p44
sS'country'
p45
VNew Zealand
p46
sS'day_of_week'
p47
VToday
p48
sS'humidity'
p49
V90
p50
sS'precip'
p51
VN/A
p52
sS'sunset'
p53
V8:35 PM
p54
sS'bar_desc'
p55
VN/A
p56
sbsS'timestamp'
p57
cdatetime
datetime
p58
(S'\x07\xdd\x01\x1b\x08\x1b\t\x02\xe0y'
tRp59
sS'day'
p60
(lp61
(i__main__
ForecastDataset
p62
(dp63
g6
Nsg7
V113
p64
sg9
V24
p65
sg11
g12
sg13
V6:17 AM
p66
sg15
g52
sg17
g18
sg19
V1/27/13 5:08 AM Local Time
p67
sg21
VMostly Sunny
p68
sg23
V12
p69
sg25
VN/A
p70
sg27
V34
p71
sg29
g52
sg31
g52
sg33
g52
sg35
VESE
p72
sg36
V19
p73
sg37
g52
sg39
g52
sg41
g52
sg43
g52
sg45
g46
sg47
VSunday
p74
sg49
V59
p75
sg51
V0
sg53
V8:34 PM
p76
sg55
g52
sba(i__main__
ForecastDataset
p77
(dp78
g6
Nsg7
V110
p79
sg9
V24
p80
sg11
g12
sg13
V6:18 AM
p81
sg15
g52
sg17
g18
sg19
g67
sg21
VSunny
p82
sg23
V12
p83
sg25
VN/A
p84
sg27
V32
p85
sg29
g52
sg31
g52
sg33
g52
sg35
VESE
p86
sg36
V18
p87
sg37
g52
sg39
g52
sg41
g52
sg43
g52
sg45
g46
sg47
VMonday
p88
sg49
V55
p89
sg51
V0
sg53
V8:33 PM
p90
sg55
g52
sba(i__main__
ForecastDataset
p91
(dp92
g6
Nsg7
V119
p93
sg9
V24
p94
sg11
g12
sg13
V6:19 AM
p95
sg15
g52
sg17
g18
sg19
g67
sg21
VSunny
p96
sg23
V12
p97
sg25
VN/A
p98
sg27
V32
p99
sg29
g52
sg31
g52
sg33
g52
sg35
VESE
p100
sg36
V18
p101
sg37
g52
sg39
g52
sg41
g52
sg43
g52
sg45
g46
sg47
VTuesday
p102
sg49
V60
p103
sg51
V0
sg53
V8:32 PM
p104
sg55
g52
sba(i__main__
ForecastDataset
p105
(dp106
g6
Nsg7
V61
p107
sg9
V25
p108
sg11
g12
sg13
V6:21 AM
p109
sg15
g52
sg17
g18
sg19
g67
sg21
VSunny
p110
sg23
V14
p111
sg25
VN/A
p112
sg27
V32
p113
sg29
g52
sg31
g52
sg33
g52
sg35
VENE
p114
sg36
V16
p115
sg37
g52
sg39
g52
sg41
g52
sg43
g52
sg45
g46
sg47
VWednesday
p116
sg49
V62
p117
sg51
V0
sg53
V8:31 PM
p118
sg55
g52
sba(i__main__
ForecastDataset
p119
(dp120
g6
Nsg7
V44
p121
sg9
V26
p122
sg11
g12
sg13
V6:22 AM
p123
sg15
g52
sg17
g18
sg19
g67
sg21
VSunny
p124
sg23
V14
p125
sg25
VN/A
p126
sg27
V32
p127
sg29
g52
sg31
g52
sg33
g52
sg35
VNE
p128
sg36
V16
p129
sg37
g52
sg39
g52
sg41
g52
sg43
g52
sg45
g46
sg47
VThursday
p130
sg49
V65
p131
sg51
V0
sg53
V8:30 PM
p132
sg55
g52
sba(i__main__
ForecastDataset
p133
(dp134
g6
Nsg7
V41
p135
sg9
V26
p136
sg11
g12
sg13
V6:23 AM
p137
sg15
g52
sg17
g18
sg19
g67
sg21
VSunny
p138
sg23
V15
p139
sg25
VN/A
p140
sg27
V32
p141
sg29
g52
sg31
g52
sg33
g52
sg35
VNE
p142
sg36
V18
p143
sg37
g52
sg39
g52
sg41
g52
sg43
g52
sg45
g46
sg47
VFriday
p144
sg49
V65
p145
sg51
V0
sg53
V8:29 PM
p146
sg55
g52
sba(i__main__
ForecastDataset
p147
(dp148
g6
Nsg7
V44
p149
sg9
V26
p150
sg11
g12
sg13
V6:24 AM
p151
sg15
g52
sg17
g18
sg19
g67
sg21
VSunny
p152
sg23
V16
p153
sg25
VN/A
p154
sg27
V32
p155
sg29
g52
sg31
g52
sg33
g52
sg35
VNE
p156
sg36
V16
p157
sg37
g52
sg39
g52
sg41
g52
sg43
g52
sg45
g46
sg47
VSaturday
p158
sg49
V66
p159
sg51
V0
sg53
V8:28 PM
p160
sg55
g52
sba(i__main__
ForecastDataset
p161
(dp162
g6
Nsg7
V28
p163
sg9
V26
p164
sg11
g12
sg13
V6:25 AM
p165
sg15
g52
sg17
g18
sg19
g67
sg21
VMostly Sunny
p166
sg23
V16
p167
sg25
VN/A
p168
sg27
V34
p169
sg29
g52
sg31
g52
sg33
g52
sg35
VNNE
p170
sg36
V18
p171
sg37
g52
sg39
g52
sg41
g52
sg43
g52
sg45
g46
sg47
VSunday
p172
sg49
V65
p173
sg51
V0
sg53
V8:28 PM
p174
sg55
g52
sba(i__main__
ForecastDataset
p175
(dp176
g6
Nsg7
V26
p177
sg9
V25
p178
sg11
g12
sg13
V6:27 AM
p179
sg15
g52
sg17
g18
sg19
g67
sg21
VScattered Showers
p180
sg23
V17
p181
sg25
VN/A
p182
sg27
V39
p183
sg29
g52
sg31
g52
sg33
g52
sg35
VNNE
p184
sg36
V16
p185
sg37
g52
sg39
g52
sg41
g52
sg43
g52
sg45
g46
sg47
VMonday
p186
sg49
V69
p187
sg51
V30
p188
sg53
V8:26 PM
p189
sg55
g52
sba(i__main__
ForecastDataset
p190
(dp191
g6
Nsg7
V45
p192
sg9
V23
p193
sg11
g12
sg13
V6:28 AM
p194
sg15
g52
sg17
g18
sg19
g67
sg21
VShowers
p195
sg23
V16
p196
sg25
VN/A
p197
sg27
V11
p198
sg29
g52
sg31
g52
sg33
g52
sg35
VNE
p199
sg36
V18
p200
sg37
g52
sg39
g52
sg41
g52
sg43
g52
sg45
g46
sg47
VTuesday
p201
sg49
V72
p202
sg51
V60
p203
sg53
V8:25 PM
p204
sg55
g52
sbasS'night'
p205
(lp206
(i__main__
ForecastDataset
p207
(dp208
g6
Nsg7
V159
p209
sg9
g65
sg11
g12
sg13
g66
sg15
g52
sg17
g18
sg19
g67
sg21
VPartly Cloudy
p210
sg23
g69
sg25
VN/A
p211
sg27
V29
p212
sg29
g52
sg31
g52
sg33
g52
sg35
VSSE
p213
sg36
V18
p214
sg37
g52
sg39
g52
sg41
g52
sg43
g52
sg45
g46
sg47
g74
sg49
V79
p215
sg51
V0
sg53
g76
sg55
g52
sba(i__main__
ForecastDataset
p216
(dp217
g6
Nsg7
V163
p218
sg9
g80
sg11
g12
sg13
g81
sg15
g52
sg17
g18
sg19
g67
sg21
VClear
p219
sg23
g83
sg25
VN/A
p220
sg27
V31
p221
sg29
g52
sg31
g52
sg33
g52
sg35
VSSE
p222
sg36
V16
p223
sg37
g52
sg39
g52
sg41
g52
sg43
g52
sg45
g46
sg47
g88
sg49
V77
p224
sg51
V0
sg53
g90
sg55
g52
sba(i__main__
ForecastDataset
p225
(dp226
g6
Nsg7
V69
p227
sg9
g94
sg11
g12
sg13
g95
sg15
g52
sg17
g18
sg19
g67
sg21
VMostly Clear
p228
sg23
g97
sg25
VN/A
p229
sg27
V33
p230
sg29
g52
sg31
g52
sg33
g52
sg35
VENE
p231
sg36
V10
p232
sg37
g52
sg39
g52
sg41
g52
sg43
g52
sg45
g46
sg47
g102
sg49
V72
p233
sg51
V0
sg53
g104
sg55
g52
sba(i__main__
ForecastDataset
p234
(dp235
g6
Nsg7
V324
p236
sg9
g108
sg11
g12
sg13
g109
sg15
g52
sg17
g18
sg19
g67
sg21
VClear
p237
sg23
g111
sg25
VN/A
p238
sg27
V31
p239
sg29
g52
sg31
g52
sg33
g52
sg35
VNW
p240
sg36
V10
p241
sg37
g52
sg39
g52
sg41
g52
sg43
g52
sg45
g46
sg47
g116
sg49
V77
p242
sg51
V0
sg53
g118
sg55
g52
sba(i__main__
ForecastDataset
p243
(dp244
g6
Nsg7
V336
p245
sg9
g122
sg11
g12
sg13
g123
sg15
g52
sg17
g18
sg19
g67
sg21
VClear
p246
sg23
g125
sg25
VN/A
p247
sg27
V31
p248
sg29
g52
sg31
g52
sg33
g52
sg35
VNNW
p249
sg36
V8
sg37
g52
sg39
g52
sg41
g52
sg43
g52
sg45
g46
sg47
g130
sg49
V78
p250
sg51
V0
sg53
g132
sg55
g52
sba(i__main__
ForecastDataset
p251
(dp252
g6
Nsg7
V327
p253
sg9
g136
sg11
g12
sg13
g137
sg15
g52
sg17
g18
sg19
g67
sg21
VClear
p254
sg23
g139
sg25
VN/A
p255
sg27
V31
p256
sg29
g52
sg31
g52
sg33
g52
sg35
VNNW
p257
sg36
V10
p258
sg37
g52
sg39
g52
sg41
g52
sg43
g52
sg45
g46
sg47
g144
sg49
V77
p259
sg51
V0
sg53
g146
sg55
g52
sba(i__main__
ForecastDataset
p260
(dp261
g6
Nsg7
V333
p262
sg9
g150
sg11
g12
sg13
g151
sg15
g52
sg17
g18
sg19
g67
sg21
VClear
p263
sg23
g153
sg25
VN/A
p264
sg27
V31
p265
sg29
g52
sg31
g52
sg33
g52
sg35
VNNW
p266
sg36
V8
sg37
g52
sg39
g52
sg41
g52
sg43
g52
sg45
g46
sg47
g158
sg49
V77
p267
sg51
V0
sg53
g160
sg55
g52
sba(i__main__
ForecastDataset
p268
(dp269
g6
Nsg7
V351
p270
sg9
g164
sg11
g12
sg13
g165
sg15
g52
sg17
g18
sg19
g67
sg21
VMostly Clear
p271
sg23
g167
sg25
VN/A
p272
sg27
V33
p273
sg29
g52
sg31
g52
sg33
g52
sg35
VN
sg36
V11
p274
sg37
g52
sg39
g52
sg41
g52
sg43
g52
sg45
g46
sg47
g172
sg49
V75
p275
sg51
V0
sg53
g174
sg55
g52
sba(i__main__
ForecastDataset
p276
(dp277
g6
Nsg7
V335
p278
sg9
g178
sg11
g12
sg13
g179
sg15
g52
sg17
g18
sg19
g67
sg21
VShowers
p279
sg23
g181
sg25
VN/A
p280
sg27
V11
p281
sg29
g52
sg31
g52
sg33
g52
sg35
VNNW
p282
sg36
V13
p283
sg37
g52
sg39
g52
sg41
g52
sg43
g52
sg45
g46
sg47
g186
sg49
V81
p284
sg51
V40
p285
sg53
g189
sg55
g52
sba(i__main__
ForecastDataset
p286
(dp287
g6
Nsg7
V190
p288
sg9
g193
sg11
g12
sg13
g194
sg15
g52
sg17
g18
sg19
g67
sg21
VPartly Cloudy
p289
sg23
g196
sg25
VN/A
p290
sg27
V29
p291
sg29
g52
sg31
g52
sg33
g52
sg35
VS
sg36
V11
p292
sg37
g52
sg39
g52
sg41
g52
sg43
g52
sg45
g46
sg47
g201
sg49
V78
p293
sg51
V10
p294
sg53
g204
sg55
g52
sbasb.