(i__main__
ForecastLocation
p1
(dp2
S'current'
p3
(i__main__
ForecastDataset
p4
(dp5
S'weathermap'
p6
NsS'wind_dir_numeric'
p7
V20
p8
sS'high'
p9
V22
p10
sS'timezone'
p11
V13
p12
sS'sunrise'
p13
V6:39 AM
p14
sS'uv_index'
p15
V0
sS'city'
p16
VAuckland
p17
sS'last_update'
p18
V2/4/13 6:00 PM Local Time
p19
sS'condition_text'
p20
VCloudy  and  Windy
p21
sS'low'
p22
V22
p23
sS'wind_gusts'
p24
VN/A
p25
sS'condition_code'
p26
V26
p27
sS'bar_read'
p28
V1004.1
p29
sS'visibility'
p30
V10.0
p31
sS'uv_text'
p32
VLow
p33
sS'wind_dir'
p34
VNNE
p35
sS'wind_speed'
p36
V42
p37
sS'moon_phase'
p38
VLast Quarter
p39
sS'observatory'
p40
VAuckland
p41
sS'moon_icon'
p42
V22
p43
sS'dew_point'
p44
V20
p45
sS'country'
p46
VNew Zealand
p47
sS'day_of_week'
p48
VToday
p49
sS'humidity'
p50
V88
p51
sS'precip'
p52
VN/A
p53
sS'sunset'
p54
V8:29 PM
p55
sS'bar_desc'
p56
Vfalling
p57
sbsS'timestamp'
p58
cdatetime
datetime
p59
(S'\x07\xdd\x02\x04\x12\x1f\x02\x07\x9e]'
tRp60
sS'day'
p61
(lp62
(i__main__
ForecastDataset
p63
(dp64
g6
Nsg7
VN/A
p65
sg9
VN/A
p66
sg11
g12
sg13
V6:41 AM
p67
sg15
g53
sg16
g17
sg18
V2/4/13 5:08 PM Local Time
p68
sg20
VN/A
p69
sg22
V18
p70
sg24
VN/A
p71
sg26
V44
p72
sg28
g53
sg30
g53
sg32
g53
sg34
VN/A
p73
sg36
VN/A
p74
sg38
g53
sg40
g53
sg42
g53
sg44
g53
sg46
g47
sg48
VMonday
p75
sg50
VN/A
p76
sg52
V80
p77
sg54
V8:29 PM
p78
sg56
g53
sba(i__main__
ForecastDataset
p79
(dp80
g6
Nsg7
V221
p81
sg9
V21
p82
sg11
g12
sg13
V6:42 AM
p83
sg15
g53
sg16
g17
sg18
g68
sg20
VAM Showers
p84
sg22
V12
p85
sg24
VN/A
p86
sg26
V39
p87
sg28
g53
sg30
g53
sg32
g53
sg34
VSW
p88
sg36
V39
p89
sg38
g53
sg40
g53
sg42
g53
sg44
g53
sg46
g47
sg48
VTuesday
p90
sg50
V63
p91
sg52
V40
p92
sg54
V8:28 PM
p93
sg56
g53
sba(i__main__
ForecastDataset
p94
(dp95
g6
Nsg7
V190
p96
sg9
V24
p97
sg11
g12
sg13
V6:43 AM
p98
sg15
g53
sg16
g17
sg18
g68
sg20
VSunny
p99
sg22
V12
p100
sg24
VN/A
p101
sg26
V32
p102
sg28
g53
sg30
g53
sg32
g53
sg34
VS
sg36
V19
p103
sg38
g53
sg40
g53
sg42
g53
sg44
g53
sg46
g47
sg48
VWednesday
p104
sg50
V47
p105
sg52
V0
sg54
V8:27 PM
p106
sg56
g53
sba(i__main__
ForecastDataset
p107
(dp108
g6
Nsg7
V198
p109
sg9
V24
p110
sg11
g12
sg13
V6:44 AM
p111
sg15
g53
sg16
g17
sg18
g68
sg20
VMostly Sunny
p112
sg22
V14
p113
sg24
VN/A
p114
sg26
V34
p115
sg28
g53
sg30
g53
sg32
g53
sg34
VSSW
p116
sg36
V18
p117
sg38
g53
sg40
g53
sg42
g53
sg44
g53
sg46
g47
sg48
VThursday
p118
sg50
V59
p119
sg52
V0
sg54
V8:26 PM
p120
sg56
g53
sba(i__main__
ForecastDataset
p121
(dp122
g6
Nsg7
V220
p123
sg9
V25
p124
sg11
g12
sg13
V6:45 AM
p125
sg15
g53
sg16
g17
sg18
g68
sg20
VMostly Sunny
p126
sg22
V14
p127
sg24
VN/A
p128
sg26
V34
p129
sg28
g53
sg30
g53
sg32
g53
sg34
VSW
p130
sg36
V19
p131
sg38
g53
sg40
g53
sg42
g53
sg44
g53
sg46
g47
sg48
VFriday
p132
sg50
V62
p133
sg52
V0
sg54
V8:25 PM
p134
sg56
g53
sba(i__main__
ForecastDataset
p135
(dp136
g6
Nsg7
V226
p137
sg9
V24
p138
sg11
g12
sg13
V6:46 AM
p139
sg15
g53
sg16
g17
sg18
g68
sg20
VSunny
p140
sg22
V16
p141
sg24
VN/A
p142
sg26
V32
p143
sg28
g53
sg30
g53
sg32
g53
sg34
VSW
p144
sg36
V23
p145
sg38
g53
sg40
g53
sg42
g53
sg44
g53
sg46
g47
sg48
VSaturday
p146
sg50
V67
p147
sg52
V0
sg54
V8:24 PM
p148
sg56
g53
sba(i__main__
ForecastDataset
p149
(dp150
g6
Nsg7
V232
p151
sg9
V25
p152
sg11
g12
sg13
V6:47 AM
p153
sg15
g53
sg16
g17
sg18
g68
sg20
VPartly Cloudy
p154
sg22
V16
p155
sg24
VN/A
p156
sg26
V30
p157
sg28
g53
sg30
g53
sg32
g53
sg34
VSW
p158
sg36
V23
p159
sg38
g53
sg40
g53
sg42
g53
sg44
g53
sg46
g47
sg48
VSunday
p160
sg50
V65
p161
sg52
V0
sg54
V8:23 PM
p162
sg56
g53
sba(i__main__
ForecastDataset
p163
(dp164
g6
Nsg7
V248
p165
sg9
V24
p166
sg11
g12
sg13
V6:48 AM
p167
sg15
g53
sg16
g17
sg18
g68
sg20
VPartly Cloudy
p168
sg22
V17
p169
sg24
VN/A
p170
sg26
V30
p171
sg28
g53
sg30
g53
sg32
g53
sg34
VWSW
p172
sg36
V23
p173
sg38
g53
sg40
g53
sg42
g53
sg44
g53
sg46
g47
sg48
VMonday
p174
sg50
V64
p175
sg52
V10
p176
sg54
V8:22 PM
p177
sg56
g53
sba(i__main__
ForecastDataset
p178
(dp179
g6
Nsg7
V275
p180
sg9
V25
p181
sg11
g12
sg13
V6:49 AM
p182
sg15
g53
sg16
g17
sg18
g68
sg20
VPartly Cloudy
p183
sg22
V17
p184
sg24
VN/A
p185
sg26
V30
p186
sg28
g53
sg30
g53
sg32
g53
sg34
VW
sg36
V23
p187
sg38
g53
sg40
g53
sg42
g53
sg44
g53
sg46
g47
sg48
VTuesday
p188
sg50
V65
p189
sg52
V0
sg54
V8:21 PM
p190
sg56
g53
sba(i__main__
ForecastDataset
p191
(dp192
g6
Nsg7
V259
p193
sg9
V25
p194
sg11
g12
sg13
V6:50 AM
p195
sg15
g53
sg16
g17
sg18
g68
sg20
VFew Showers
p196
sg22
V16
p197
sg24
VN/A
p198
sg26
V11
p199
sg28
g53
sg30
g53
sg32
g53
sg34
VW
sg36
V19
p200
sg38
g53
sg40
g53
sg42
g53
sg44
g53
sg46
g47
sg48
VWednesday
p201
sg50
V71
p202
sg52
V30
p203
sg54
V8:20 PM
p204
sg56
g53
sbasS'night'
p205
(lp206
(i__main__
ForecastDataset
p207
(dp208
g6
Nsg7
V303
p209
sg9
g66
sg11
g12
sg13
g67
sg15
g53
sg16
g17
sg18
g68
sg20
VRain
p210
sg22
g70
sg24
VN/A
p211
sg26
V12
p212
sg28
g53
sg30
g53
sg32
g53
sg34
VWNW
p213
sg36
V34
p214
sg38
g53
sg40
g53
sg42
g53
sg44
g53
sg46
g47
sg48
g75
sg50
V91
p215
sg52
V80
p216
sg54
g78
sg56
g53
sba(i__main__
ForecastDataset
p217
(dp218
g6
Nsg7
V177
p219
sg9
g82
sg11
g12
sg13
g83
sg15
g53
sg16
g17
sg18
g68
sg20
VClear
p220
sg22
g85
sg24
VN/A
p221
sg26
V31
p222
sg28
g53
sg30
g53
sg32
g53
sg34
VS
sg36
V39
p223
sg38
g53
sg40
g53
sg42
g53
sg44
g53
sg46
g47
sg48
g90
sg50
V62
p224
sg52
V0
sg54
g93
sg56
g53
sba(i__main__
ForecastDataset
p225
(dp226
g6
Nsg7
V185
p227
sg9
g97
sg11
g12
sg13
g98
sg15
g53
sg16
g17
sg18
g68
sg20
VPartly Cloudy
p228
sg22
g100
sg24
VN/A
p229
sg26
V29
p230
sg28
g53
sg30
g53
sg32
g53
sg34
VS
sg36
V11
p231
sg38
g53
sg40
g53
sg42
g53
sg44
g53
sg46
g47
sg48
g104
sg50
V62
p232
sg52
V0
sg54
g106
sg56
g53
sba(i__main__
ForecastDataset
p233
(dp234
g6
Nsg7
V212
p235
sg9
g110
sg11
g12
sg13
g111
sg15
g53
sg16
g17
sg18
g68
sg20
VPartly Cloudy
p236
sg22
g113
sg24
VN/A
p237
sg26
V29
p238
sg28
g53
sg30
g53
sg32
g53
sg34
VSSW
p239
sg36
V10
p240
sg38
g53
sg40
g53
sg42
g53
sg44
g53
sg46
g47
sg48
g118
sg50
V70
p241
sg52
V0
sg54
g120
sg56
g53
sba(i__main__
ForecastDataset
p242
(dp243
g6
Nsg7
V228
p244
sg9
g124
sg11
g12
sg13
g125
sg15
g53
sg16
g17
sg18
g68
sg20
VClear
p245
sg22
g127
sg24
VN/A
p246
sg26
V31
p247
sg28
g53
sg30
g53
sg32
g53
sg34
VSW
p248
sg36
V8
sg38
g53
sg40
g53
sg42
g53
sg44
g53
sg46
g47
sg48
g132
sg50
V75
p249
sg52
V0
sg54
g134
sg56
g53
sba(i__main__
ForecastDataset
p250
(dp251
g6
Nsg7
V225
p252
sg9
g138
sg11
g12
sg13
g139
sg15
g53
sg16
g17
sg18
g68
sg20
VClear
p253
sg22
g141
sg24
VN/A
p254
sg26
V31
p255
sg28
g53
sg30
g53
sg32
g53
sg34
VSW
p256
sg36
V13
p257
sg38
g53
sg40
g53
sg42
g53
sg44
g53
sg46
g47
sg48
g146
sg50
V74
p258
sg52
V0
sg54
g148
sg56
g53
sba(i__main__
ForecastDataset
p259
(dp260
g6
Nsg7
V242
p261
sg9
g152
sg11
g12
sg13
g153
sg15
g53
sg16
g17
sg18
g68
sg20
VPartly Cloudy
p262
sg22
g155
sg24
VN/A
p263
sg26
V29
p264
sg28
g53
sg30
g53
sg32
g53
sg34
VWSW
p265
sg36
V14
p266
sg38
g53
sg40
g53
sg42
g53
sg44
g53
sg46
g47
sg48
g160
sg50
V75
p267
sg52
V10
p268
sg54
g162
sg56
g53
sba(i__main__
ForecastDataset
p269
(dp270
g6
Nsg7
V262
p271
sg9
g166
sg11
g12
sg13
g167
sg15
g53
sg16
g17
sg18
g68
sg20
VPartly Cloudy
p272
sg22
g169
sg24
VN/A
p273
sg26
V29
p274
sg28
g53
sg30
g53
sg32
g53
sg34
VW
sg36
V14
p275
sg38
g53
sg40
g53
sg42
g53
sg44
g53
sg46
g47
sg48
g174
sg50
V76
p276
sg52
V0
sg54
g177
sg56
g53
sba(i__main__
ForecastDataset
p277
(dp278
g6
Nsg7
V282
p279
sg9
g181
sg11
g12
sg13
g182
sg15
g53
sg16
g17
sg18
g68
sg20
VPartly Cloudy
p280
sg22
g184
sg24
VN/A
p281
sg26
V29
p282
sg28
g53
sg30
g53
sg32
g53
sg34
VWNW
p283
sg36
V13
p284
sg38
g53
sg40
g53
sg42
g53
sg44
g53
sg46
g47
sg48
g188
sg50
V75
p285
sg52
V0
sg54
g190
sg56
g53
sba(i__main__
ForecastDataset
p286
(dp287
g6
Nsg7
V241
p288
sg9
g194
sg11
g12
sg13
g195
sg15
g53
sg16
g17
sg18
g68
sg20
VClear
p289
sg22
g197
sg24
VN/A
p290
sg26
V31
p291
sg28
g53
sg30
g53
sg32
g53
sg34
VWSW
p292
sg36
V11
p293
sg38
g53
sg40
g53
sg42
g53
sg44
g53
sg46
g47
sg48
g201
sg50
V77
p294
sg52
V0
sg54
g204
sg56
g53
sbasb.